target datalayout = "e-m:e-p270:32:32-p271:32:32-p272:64:64-i64:64-i128:128-f80:128-n8:16:32:64-S128"
target triple = "x86_64-pc-linux-gnu"

%struct._rtp_dyn_payload_t = type { ptr, i64 }
%struct.encoding_name_and_rate_t = type { ptr, i32, i32, ptr }

; Function Attrs: null_pointer_is_valid sspstrong uwtable
define void @rtp_dyn_payload_insert_full(ptr noundef %0, i32 noundef %1, ptr noundef %2, i32 noundef %3, i32 noundef %4, ptr noundef %5) #1 {
  %7 = alloca ptr, align 8
  %8 = alloca i32, align 4
  %9 = alloca ptr, align 8
  %10 = alloca i32, align 4
  %11 = alloca i32, align 4
  %12 = alloca ptr, align 8
  %13 = alloca ptr, align 8
  store ptr %0, ptr %7, align 8
  store i32 %1, ptr %8, align 4
  store ptr %2, ptr %9, align 8
  store i32 %3, ptr %10, align 4
  store i32 %4, ptr %11, align 4
  store ptr %5, ptr %12, align 8
  %14 = load ptr, ptr %7, align 8
  %15 = icmp ne ptr %14, null
  br i1 %15, label %16, label %66

16:                                               ; preds = %6
  %17 = load ptr, ptr %7, align 8
  %18 = getelementptr inbounds nuw %struct._rtp_dyn_payload_t, ptr %17, i32 0, i32 0
  %19 = load ptr, ptr %18, align 8
  %20 = icmp ne ptr %19, null
  br i1 %20, label %21, label %66

21:                                               ; preds = %16
  call void @llvm.lifetime.start.p0(i64 8, ptr %13) #14
  %22 = load ptr, ptr %7, align 8
  %23 = getelementptr inbounds nuw %struct._rtp_dyn_payload_t, ptr %22, i32 0, i32 0
  %24 = load ptr, ptr %23, align 8
  %25 = load i32, ptr %8, align 4
  %26 = zext i32 %25 to i64
  %27 = inttoptr i64 %26 to ptr
  %28 = call ptr @g_hash_table_lookup(ptr noundef %24, ptr noundef %27)
  store ptr %28, ptr %13, align 8
  %29 = load ptr, ptr %13, align 8
  %30 = icmp ne ptr %29, null
  br i1 %30, label %46, label %31

31:                                               ; preds = %21
  %32 = call ptr @wmem_file_scope()
  %33 = call noalias ptr @wmem_alloc(ptr noundef %32, i64 noundef 24) #15
  store ptr %33, ptr %13, align 8
  %34 = call ptr @wmem_file_scope()
  %35 = call noalias ptr @wmem_map_new(ptr noundef %34, ptr noundef @wmem_str_hash, ptr noundef @g_str_equal)
  %36 = load ptr, ptr %13, align 8
  %37 = getelementptr inbounds nuw %struct.encoding_name_and_rate_t, ptr %36, i32 0, i32 3
  store ptr %35, ptr %37, align 8
  %38 = load ptr, ptr %7, align 8
  %39 = getelementptr inbounds nuw %struct._rtp_dyn_payload_t, ptr %38, i32 0, i32 0
  %40 = load ptr, ptr %39, align 8
  %41 = load i32, ptr %8, align 4
  %42 = zext i32 %41 to i64
  %43 = inttoptr i64 %42 to ptr
  %44 = load ptr, ptr %13, align 8
  %45 = call i32 @g_hash_table_insert(ptr noundef %40, ptr noundef %43, ptr noundef %44)
  br label %46

46:                                               ; preds = %31, %21
  %47 = call ptr @wmem_file_scope()
  %48 = load ptr, ptr %9, align 8
  %49 = call noalias ptr @wmem_strdup(ptr noundef %47, ptr noundef %48)
  %50 = load ptr, ptr %13, align 8
  %51 = getelementptr inbounds nuw %struct.encoding_name_and_rate_t, ptr %50, i32 0, i32 0
  store ptr %49, ptr %51, align 8
  %52 = load i32, ptr %10, align 4
  %53 = load ptr, ptr %13, align 8
  %54 = getelementptr inbounds nuw %struct.encoding_name_and_rate_t, ptr %53, i32 0, i32 1
  store i32 %52, ptr %54, align 8
  %55 = load i32, ptr %11, align 4
  %56 = load ptr, ptr %13, align 8
  %57 = getelementptr inbounds nuw %struct.encoding_name_and_rate_t, ptr %56, i32 0, i32 2
  store i32 %55, ptr %57, align 4
  %58 = load ptr, ptr %12, align 8
  %59 = icmp ne ptr %58, null
  br i1 %59, label %60, label %65

60:                                               ; preds = %46
  %61 = load ptr, ptr %12, align 8
  %62 = load ptr, ptr %13, align 8
  %63 = getelementptr inbounds nuw %struct.encoding_name_and_rate_t, ptr %62, i32 0, i32 3
  %64 = load ptr, ptr %63, align 8
  call void @wmem_map_foreach(ptr noundef %61, ptr noundef @rtp_dyn_payload_add_fmtp_int, ptr noundef %64)
  br label %65

65:                                               ; preds = %60, %46
  call void @llvm.lifetime.end.p0(i64 8, ptr %13) #14
  br label %66

66:                                               ; preds = %65, %16, %6
  ret void
}