; Function Attrs: null_pointer_is_valid sspstrong uwtable
define void @rtp_dyn_payload_insert_full(ptr noundef readonly captures(address_is_null) %0, i32 noundef %1, ptr noundef %2, i32 noundef %3, i32 noundef %4, ptr noundef %5) local_unnamed_addr #1 {
  %.not = icmp eq ptr %0, null
  br i1 %.not, label %29, label %7

7:                                                ; preds = %6
  %8 = load ptr, ptr %0, align 8
  %.not21 = icmp eq ptr %8, null
  br i1 %.not21, label %29, label %9

9:                                                ; preds = %7
  %10 = zext i32 %1 to i64
  %11 = inttoptr i64 %10 to ptr
  %12 = tail call ptr @g_hash_table_lookup(ptr noundef nonnull %8, ptr noundef %11)
  %.not22 = icmp eq ptr %12, null
  br i1 %.not22, label %13, label %21

13:                                               ; preds = %9
  %14 = tail call ptr @wmem_file_scope()
  %15 = tail call noalias dereferenceable_or_null(24) ptr @wmem_alloc(ptr noundef %14, i64 noundef 24) #14
  %16 = tail call ptr @wmem_file_scope()
  %17 = tail call noalias ptr @wmem_map_new(ptr noundef %16, ptr noundef nonnull @wmem_str_hash, ptr noundef nonnull @g_str_equal)
  %18 = getelementptr inbounds nuw i8, ptr %15, i64 16
  store ptr %17, ptr %18, align 8
  %19 = load ptr, ptr %0, align 8
  %20 = tail call i32 @g_hash_table_insert(ptr noundef %19, ptr noundef %11, ptr noundef %15)
  br label %21

21:                                               ; preds = %13, %9
  %.0 = phi ptr [ %12, %9 ], [ %15, %13 ]
  %22 = tail call ptr @wmem_file_scope()
  %23 = tail call noalias ptr @wmem_strdup(ptr noundef %22, ptr noundef %2)
  store ptr %23, ptr %.0, align 8
  %24 = getelementptr inbounds nuw i8, ptr %.0, i64 8
  store i32 %3, ptr %24, align 8
  %25 = getelementptr inbounds nuw i8, ptr %.0, i64 12
  store i32 %4, ptr %25, align 4
  %.not23 = icmp eq ptr %5, null
  br i1 %.not23, label %29, label %26

26:                                               ; preds = %21
  %27 = getelementptr inbounds nuw i8, ptr %.0, i64 16
  %28 = load ptr, ptr %27, align 8
  tail call void @wmem_map_foreach(ptr noundef nonnull %5, ptr noundef nonnull @rtp_dyn_payload_add_fmtp_int, ptr noundef %28)
  br label %29

29:                                               ; preds = %21, %26, %7, %6
  ret void
}